; ModuleID = '43/1057.c'
source_filename = "43/1057.c"
target datalayout = "e-m:e-p270:32:32-p271:32:32-p272:64:64-i64:64-f80:128-n8:16:32:64-S128"
target triple = "x86_64-pc-linux-gnu"

@.str = private unnamed_addr constant [3 x i8] c"%d\00", align 1
@.str.1 = private unnamed_addr constant [7 x i8] c"%d %d\0A\00", align 1

; Function Attrs: noinline nounwind uwtable
define dso_local i32 @main() #0 {
  %1 = alloca i32, align 4
  %2 = alloca i32, align 4
  %3 = alloca i32, align 4
  %4 = alloca i32, align 4
  %5 = alloca i32, align 4
  %6 = alloca i32, align 4
  store i32 0, i32* %1, align 4
  %7 = call i32 (i8*, ...) @__isoc99_scanf(i8* getelementptr inbounds ([3 x i8], [3 x i8]* @.str, i64 0, i64 0), i32* %2)
  store i32 3, i32* %3, align 4
  br label %8

8:                                                ; preds = %66, %0
  %9 = load i32, i32* %3, align 4
  %10 = load i32, i32* %2, align 4
  %11 = sdiv i32 %10, 2
  %12 = icmp sle i32 %9, %11
  br i1 %12, label %13, label %69

13:                                               ; preds = %8
  store i32 0, i32* %6, align 4
  store i32 3, i32* %5, align 4
  br label %14

14:                                               ; preds = %29, %13
  %15 = load i32, i32* %5, align 4
  %16 = sitofp i32 %15 to double
  %17 = load i32, i32* %3, align 4
  %18 = sitofp i32 %17 to double
  %19 = fmul double %18, 1.000000e+00
  %20 = fdiv double %19, 2.000000e+00
  %21 = fcmp olt double %16, %20
  br i1 %21, label %22, label %32

22:                                               ; preds = %14
  %23 = load i32, i32* %3, align 4
  %24 = load i32, i32* %5, align 4
  %25 = srem i32 %23, %24
  %26 = icmp eq i32 %25, 0
  br i1 %26, label %27, label %28

27:                                               ; preds = %22
  store i32 1, i32* %6, align 4
  br label %32

28:                                               ; preds = %22
  br label %29

29:                                               ; preds = %28
  %30 = load i32, i32* %5, align 4
  %31 = add nsw i32 %30, 2
  store i32 %31, i32* %5, align 4
  br label %14

32:                                               ; preds = %27, %14
  %33 = load i32, i32* %6, align 4
  %34 = icmp eq i32 %33, 1
  br i1 %34, label %35, label %36

35:                                               ; preds = %32
  br label %66

36:                                               ; preds = %32
  %37 = load i32, i32* %2, align 4
  %38 = load i32, i32* %3, align 4
  %39 = sub nsw i32 %37, %38
  store i32 %39, i32* %4, align 4
  store i32 3, i32* %5, align 4
  br label %40

40:                                               ; preds = %55, %36
  %41 = load i32, i32* %5, align 4
  %42 = sitofp i32 %41 to double
  %43 = load i32, i32* %4, align 4
  %44 = sitofp i32 %43 to double
  %45 = fmul double %44, 1.000000e+00
  %46 = fdiv double %45, 2.000000e+00
  %47 = fcmp olt double %42, %46
  br i1 %47, label %48, label %58

48:                                               ; preds = %40
  %49 = load i32, i32* %4, align 4
  %50 = load i32, i32* %5, align 4
  %51 = srem i32 %49, %50
  %52 = icmp eq i32 %51, 0
  br i1 %52, label %53, label %54

53:                                               ; preds = %48
  store i32 1, i32* %6, align 4
  br label %58

54:                                               ; preds = %48
  br label %55

55:                                               ; preds = %54
  %56 = load i32, i32* %5, align 4
  %57 = add nsw i32 %56, 2
  store i32 %57, i32* %5, align 4
  br label %40

58:                                               ; preds = %53, %40
  %59 = load i32, i32* %6, align 4
  %60 = icmp eq i32 %59, 0
  br i1 %60, label %61, label %65

61:                                               ; preds = %58
  %62 = load i32, i32* %3, align 4
  %63 = load i32, i32* %4, align 4
  %64 = call i32 (i8*, ...) @printf(i8* getelementptr inbounds ([7 x i8], [7 x i8]* @.str.1, i64 0, i64 0), i32 %62, i32 %63)
  br label %65

65:                                               ; preds = %61, %58
  br label %66

66:                                               ; preds = %65, %35
  %67 = load i32, i32* %3, align 4
  %68 = add nsw i32 %67, 2
  store i32 %68, i32* %3, align 4
  br label %8

69:                                               ; preds = %8
  ret i32 0
}

declare dso_local i32 @__isoc99_scanf(i8*, ...) #1

declare dso_local i32 @printf(i8*, ...) #1


!llvm.module.flags = !{!0}
!llvm.ident = !{!1}

!0 = !{i32 1, !"wchar_size", i32 4}
!1 = !{!"clang version 10.0.0-4ubuntu1 "}
